; ModuleID = 'source-C-CXX/24/1279.cpp'
source_filename = "source-C-CXX/24/1279.cpp"
target datalayout = "e-m:e-p270:32:32-p271:32:32-p272:64:64-i64:64-f80:128-n8:16:32:64-S128"
target triple = "x86_64-pc-linux-gnu"

%"class.std::ios_base::Init" = type { i8 }
%"class.std::basic_istream" = type { i32 (...)**, i64, %"class.std::basic_ios" }
%"class.std::basic_ios" = type { %"class.std::ios_base", %"class.std::basic_ostream"*, i8, i8, %"class.std::basic_streambuf"*, %"class.std::ctype"*, %"class.std::num_put"*, %"class.std::num_get"* }
%"class.std::ios_base" = type { i32 (...)**, i64, i64, i32, i32, i32, %"struct.std::ios_base::_Callback_list"*, %"struct.std::ios_base::_Words", [8 x %"struct.std::ios_base::_Words"], i32, %"struct.std::ios_base::_Words"*, %"class.std::locale" }
%"struct.std::ios_base::_Callback_list" = type { %"struct.std::ios_base::_Callback_list"*, void (i32, %"class.std::ios_base"*, i32)*, i32, i32 }
%"struct.std::ios_base::_Words" = type { i8*, i64 }
%"class.std::locale" = type { %"class.std::locale::_Impl"* }
%"class.std::locale::_Impl" = type { i32, %"class.std::locale::facet"**, i64, %"class.std::locale::facet"**, i8** }
%"class.std::locale::facet" = type <{ i32 (...)**, i32, [4 x i8] }>
%"class.std::basic_ostream" = type { i32 (...)**, %"class.std::basic_ios" }
%"class.std::basic_streambuf" = type { i32 (...)**, i8*, i8*, i8*, i8*, i8*, i8*, %"class.std::locale" }
%"class.std::ctype" = type <{ %"class.std::locale::facet.base", [4 x i8], %struct.__locale_struct*, i8, [7 x i8], i32*, i32*, i16*, i8, [256 x i8], [256 x i8], i8, [6 x i8] }>
%"class.std::locale::facet.base" = type <{ i32 (...)**, i32 }>
%struct.__locale_struct = type { [13 x %struct.__locale_data*], i16*, i32*, i32*, [13 x i8*] }
%struct.__locale_data = type opaque
%"class.std::num_put" = type { %"class.std::locale::facet.base", [4 x i8] }
%"class.std::num_get" = type { %"class.std::locale::facet.base", [4 x i8] }

@_ZStL8__ioinit = internal global %"class.std::ios_base::Init" zeroinitializer, align 1
@__dso_handle = external hidden global i8
@_ZSt3cin = external global %"class.std::basic_istream", align 8
@_ZSt4cout = external global %"class.std::basic_ostream", align 8
@llvm.global_ctors = appending global [1 x { i32, void ()*, i8* }] [{ i32, void ()*, i8* } { i32 65535, void ()* @_GLOBAL__sub_I_1279.cpp, i8* null }]

declare void @_ZNSt8ios_base4InitC1Ev(%"class.std::ios_base::Init"* nonnull align 1 dereferenceable(1)) unnamed_addr #0

; Function Attrs: nounwind
declare void @_ZNSt8ios_base4InitD1Ev(%"class.std::ios_base::Init"* nonnull align 1 dereferenceable(1)) unnamed_addr #1

; Function Attrs: nofree nounwind
declare i32 @__cxa_atexit(void (i8*)*, i8*, i8*) local_unnamed_addr #2

; Function Attrs: mustprogress norecurse sspstrong uwtable
define dso_local i32 @main() local_unnamed_addr #3 {
  %1 = alloca i32, align 4
  %2 = alloca [32 x i32], align 16
  %3 = bitcast i32* %1 to i8*
  call void @llvm.lifetime.start.p0i8(i64 4, i8* nonnull %3) #7
  %4 = bitcast [32 x i32]* %2 to i8*
  call void @llvm.lifetime.start.p0i8(i64 128, i8* nonnull %4) #7
  call void @llvm.memset.p0i8.i64(i8* noundef nonnull align 16 dereferenceable(128) %4, i8 0, i64 128, i1 false)
  %5 = getelementptr inbounds [32 x i32], [32 x i32]* %2, i64 0, i64 0
  store i32 1, i32* %5, align 16
  %6 = call nonnull align 8 dereferenceable(16) %"class.std::basic_istream"* @_ZNSirsERi(%"class.std::basic_istream"* nonnull align 8 dereferenceable(16) @_ZSt3cin, i32* nonnull align 4 dereferenceable(4) %1)
  %7 = load i32, i32* %1, align 4, !tbaa !5
  %8 = icmp sgt i32 %7, 0
  br i1 %8, label %9, label %70

9:                                                ; preds = %0
  %10 = getelementptr inbounds [32 x i32], [32 x i32]* %2, i64 0, i64 4
  %11 = getelementptr inbounds [32 x i32], [32 x i32]* %2, i64 0, i64 8
  %12 = getelementptr inbounds [32 x i32], [32 x i32]* %2, i64 0, i64 12
  %13 = getelementptr inbounds [32 x i32], [32 x i32]* %2, i64 0, i64 16
  %14 = getelementptr inbounds [32 x i32], [32 x i32]* %2, i64 0, i64 20
  %15 = getelementptr inbounds [32 x i32], [32 x i32]* %2, i64 0, i64 24
  %16 = getelementptr inbounds [32 x i32], [32 x i32]* %2, i64 0, i64 28
  %17 = bitcast [32 x i32]* %2 to <4 x i32>*
  %18 = bitcast [32 x i32]* %2 to <4 x i32>*
  %19 = bitcast i32* %10 to <4 x i32>*
  %20 = bitcast i32* %10 to <4 x i32>*
  %21 = bitcast i32* %11 to <4 x i32>*
  %22 = bitcast i32* %11 to <4 x i32>*
  %23 = bitcast i32* %12 to <4 x i32>*
  %24 = bitcast i32* %12 to <4 x i32>*
  %25 = bitcast i32* %13 to <4 x i32>*
  %26 = bitcast i32* %13 to <4 x i32>*
  %27 = bitcast i32* %14 to <4 x i32>*
  %28 = bitcast i32* %14 to <4 x i32>*
  %29 = bitcast i32* %15 to <4 x i32>*
  %30 = bitcast i32* %15 to <4 x i32>*
  %31 = bitcast i32* %16 to <4 x i32>*
  %32 = bitcast i32* %16 to <4 x i32>*
  br label %33

33:                                               ; preds = %9, %67
  %34 = phi i32 [ %68, %67 ], [ 0, %9 ]
  %35 = load <4 x i32>, <4 x i32>* %17, align 16, !tbaa !5
  %36 = shl nsw <4 x i32> %35, <i32 1, i32 1, i32 1, i32 1>
  store <4 x i32> %36, <4 x i32>* %18, align 16, !tbaa !5
  %37 = load <4 x i32>, <4 x i32>* %19, align 16, !tbaa !5
  %38 = shl nsw <4 x i32> %37, <i32 1, i32 1, i32 1, i32 1>
  store <4 x i32> %38, <4 x i32>* %20, align 16, !tbaa !5
  %39 = load <4 x i32>, <4 x i32>* %21, align 16, !tbaa !5
  %40 = shl nsw <4 x i32> %39, <i32 1, i32 1, i32 1, i32 1>
  store <4 x i32> %40, <4 x i32>* %22, align 16, !tbaa !5
  %41 = load <4 x i32>, <4 x i32>* %23, align 16, !tbaa !5
  %42 = shl nsw <4 x i32> %41, <i32 1, i32 1, i32 1, i32 1>
  store <4 x i32> %42, <4 x i32>* %24, align 16, !tbaa !5
  %43 = load <4 x i32>, <4 x i32>* %25, align 16, !tbaa !5
  %44 = shl nsw <4 x i32> %43, <i32 1, i32 1, i32 1, i32 1>
  store <4 x i32> %44, <4 x i32>* %26, align 16, !tbaa !5
  %45 = load <4 x i32>, <4 x i32>* %27, align 16, !tbaa !5
  %46 = shl nsw <4 x i32> %45, <i32 1, i32 1, i32 1, i32 1>
  store <4 x i32> %46, <4 x i32>* %28, align 16, !tbaa !5
  %47 = load <4 x i32>, <4 x i32>* %29, align 16, !tbaa !5
  %48 = shl nsw <4 x i32> %47, <i32 1, i32 1, i32 1, i32 1>
  store <4 x i32> %48, <4 x i32>* %30, align 16, !tbaa !5
  %49 = load <4 x i32>, <4 x i32>* %31, align 16, !tbaa !5
  %50 = shl nsw <4 x i32> %49, <i32 1, i32 1, i32 1, i32 1>
  store <4 x i32> %50, <4 x i32>* %32, align 16, !tbaa !5
  br label %51

51:                                               ; preds = %33, %64
  %52 = phi i64 [ 0, %33 ], [ %65, %64 ]
  %53 = getelementptr inbounds [32 x i32], [32 x i32]* %2, i64 0, i64 %52
  %54 = load i32, i32* %53, align 4, !tbaa !5
  %55 = icmp sgt i32 %54, 9
  br i1 %55, label %58, label %56

56:                                               ; preds = %51
  %57 = add nuw nsw i64 %52, 1
  br label %64

58:                                               ; preds = %51
  %59 = add nsw i32 %54, -10
  store i32 %59, i32* %53, align 4, !tbaa !5
  %60 = add nuw nsw i64 %52, 1
  %61 = getelementptr inbounds [32 x i32], [32 x i32]* %2, i64 0, i64 %60
  %62 = load i32, i32* %61, align 4, !tbaa !5
  %63 = add nsw i32 %62, 1
  store i32 %63, i32* %61, align 4, !tbaa !5
  br label %64

64:                                               ; preds = %56, %58
  %65 = phi i64 [ %57, %56 ], [ %60, %58 ]
  %66 = icmp eq i64 %65, 32
  br i1 %66, label %67, label %51, !llvm.loop !9

67:                                               ; preds = %64
  %68 = add nuw nsw i32 %34, 1
  %69 = icmp eq i32 %68, %7
  br i1 %69, label %70, label %33, !llvm.loop !11

70:                                               ; preds = %67, %0
  br label %71

71:                                               ; preds = %70, %71
  %72 = phi i64 [ %76, %71 ], [ 31, %70 ]
  %73 = getelementptr inbounds [32 x i32], [32 x i32]* %2, i64 0, i64 %72
  %74 = load i32, i32* %73, align 4, !tbaa !5
  %75 = icmp eq i32 %74, 0
  %76 = add i64 %72, -1
  br i1 %75, label %71, label %77, !llvm.loop !12

77:                                               ; preds = %71
  %78 = trunc i64 %72 to i32
  %79 = icmp sgt i32 %78, -1
  br i1 %79, label %80, label %89

80:                                               ; preds = %77
  %81 = and i64 %72, 4294967295
  br label %82

82:                                               ; preds = %80, %82
  %83 = phi i64 [ %81, %80 ], [ %88, %82 ]
  %84 = getelementptr inbounds [32 x i32], [32 x i32]* %2, i64 0, i64 %83
  %85 = load i32, i32* %84, align 4, !tbaa !5
  %86 = call nonnull align 8 dereferenceable(8) %"class.std::basic_ostream"* @_ZNSolsEi(%"class.std::basic_ostream"* nonnull align 8 dereferenceable(8) @_ZSt4cout, i32 %85)
  %87 = icmp sgt i64 %83, 0
  %88 = add nsw i64 %83, -1
  br i1 %87, label %82, label %89, !llvm.loop !13

89:                                               ; preds = %82, %77
  call void @llvm.lifetime.end.p0i8(i64 128, i8* nonnull %4) #7
  call void @llvm.lifetime.end.p0i8(i64 4, i8* nonnull %3) #7
  ret i32 0
}

; Function Attrs: argmemonly mustprogress nofree nosync nounwind willreturn
declare void @llvm.lifetime.start.p0i8(i64 immarg, i8* nocapture) #4

; Function Attrs: argmemonly mustprogress nofree nounwind willreturn writeonly
declare void @llvm.memset.p0i8.i64(i8* nocapture writeonly, i8, i64, i1 immarg) #5

declare nonnull align 8 dereferenceable(16) %"class.std::basic_istream"* @_ZNSirsERi(%"class.std::basic_istream"* nonnull align 8 dereferenceable(16), i32* nonnull align 4 dereferenceable(4)) local_unnamed_addr #0

declare nonnull align 8 dereferenceable(8) %"class.std::basic_ostream"* @_ZNSolsEi(%"class.std::basic_ostream"* nonnull align 8 dereferenceable(8), i32) local_unnamed_addr #0

; Function Attrs: argmemonly mustprogress nofree nosync nounwind willreturn
declare void @llvm.lifetime.end.p0i8(i64 immarg, i8* nocapture) #4

; Function Attrs: sspstrong uwtable
define internal void @_GLOBAL__sub_I_1279.cpp() #6 section ".text.startup" {
  tail call void @_ZNSt8ios_base4InitC1Ev(%"class.std::ios_base::Init"* nonnull align 1 dereferenceable(1) @_ZStL8__ioinit)
  %1 = tail call i32 @__cxa_atexit(void (i8*)* bitcast (void (%"class.std::ios_base::Init"*)* @_ZNSt8ios_base4InitD1Ev to void (i8*)*), i8* getelementptr inbounds (%"class.std::ios_base::Init", %"class.std::ios_base::Init"* @_ZStL8__ioinit, i64 0, i32 0), i8* nonnull @__dso_handle) #7
  ret void
}


!llvm.module.flags = !{!0, !1, !2, !3}
!llvm.ident = !{!4}

!0 = !{i32 1, !"wchar_size", i32 4}
!1 = !{i32 7, !"PIC Level", i32 2}
!2 = !{i32 7, !"PIE Level", i32 2}
!3 = !{i32 7, !"uwtable", i32 1}
!4 = !{!"clang version 13.0.0"}
!5 = !{!6, !6, i64 0}
!6 = !{!"int", !7, i64 0}
!7 = !{!"omnipotent char", !8, i64 0}
!8 = !{!"Simple C++ TBAA"}
!9 = distinct !{!9, !10}
!10 = !{!"llvm.loop.mustprogress"}
!11 = distinct !{!11, !10}
!12 = distinct !{!12, !10}
!13 = distinct !{!13, !10}
